(lp0
(lp1
I2950
aI10
aI3000
aI8
aa(lp2
I3000
aI15
aI2400
aI15
aa(lp3
I2400
aI5
aa(lp4
I2950
aI8
aa(lp5
I2950
aI5
aI2950
aI10
aa(lp6
I2850
aI5
aI3000
aI15
aa(lp7
I2400
aI5
aI2750
aI15
aa(lp8
I2900
aI20
aa(lp9
I2900
aI15
aI2950
aI10
aI2400
aI15
aa(lp10
I3000
aI20
aI3000
aI10
aI2400
aI15
aa(lp11
I2400
aI15
aI2850
aI15
aa(lp12
I2850
aI5
aa(lp13
I2400
aI8
aI2400
aI20
aI3000
aI10
aa(lp14
I3000
aI15
aI2850
aI10
aI2900
aI5
aa(lp15
I2750
aI20
aa(lp16
I2950
aI15
aI2950
aI15
aa(lp17
I3000
aI20
aI2750
aI5
aI2950
aI20
aa(lp18
I2850
aI8
aI2900
aI15
aa(lp19
I2950
aI8
aI3000
aI15
aI2750
aI8
aa(lp20
I2400
aI20
aa.